target datalayout = "e-m:e-p270:32:32-p271:32:32-p272:64:64-i64:64-i128:128-f80:128-n8:16:32:64-S128"
target triple = "x86_64-pc-linux-gnu"

%struct.AVBPrint = type { ptr, i32, i32, i32, [1 x i8], [1000 x i8] }

@.str.88 = private unnamed_addr constant [24 x i8] c"Error opening file %s.\0A\00", align 1

; Function Attrs: nounwind uwtable
define ptr @file_read(ptr noundef %0) #0 {
  %2 = alloca ptr, align 8
  %3 = alloca ptr, align 8
  %4 = alloca ptr, align 8
  %5 = alloca i32, align 4
  %6 = alloca %struct.AVBPrint, align 8
  %7 = alloca ptr, align 8
  %8 = alloca i32, align 4
  store ptr %0, ptr %3, align 8, !tbaa !10
  call void @llvm.lifetime.start.p0(i64 8, ptr %4) #11
  store ptr null, ptr %4, align 8, !tbaa !209
  call void @llvm.lifetime.start.p0(i64 4, ptr %5) #11
  %9 = load ptr, ptr %3, align 8, !tbaa !10
  %10 = call i32 @avio_open(ptr noundef %4, ptr noundef %9, i32 noundef 1)
  store i32 %10, ptr %5, align 4, !tbaa !8
  call void @llvm.lifetime.start.p0(i64 1024, ptr %6) #11
  call void @llvm.lifetime.start.p0(i64 8, ptr %7) #11
  %11 = load i32, ptr %5, align 4, !tbaa !8
  %12 = icmp slt i32 %11, 0
  br i1 %12, label %13, label %15

13:                                               ; preds = %1
  %14 = load ptr, ptr %3, align 8, !tbaa !10
  call void (ptr, i32, ptr, ...) @av_log(ptr noundef null, i32 noundef 16, ptr noundef @.str.88, ptr noundef %14)
  store ptr null, ptr %2, align 8
  store i32 1, ptr %8, align 4
  br label %30

15:                                               ; preds = %1
  call void @av_bprint_init(ptr noundef %6, i32 noundef 0, i32 noundef -1)
  %16 = load ptr, ptr %4, align 8, !tbaa !209
  %17 = call i32 @avio_read_to_bprint(ptr noundef %16, ptr noundef %6, i64 noundef -1)
  store i32 %17, ptr %5, align 4, !tbaa !8
  %18 = call i32 @avio_closep(ptr noundef %4)
  %19 = load i32, ptr %5, align 4, !tbaa !8
  %20 = icmp slt i32 %19, 0
  br i1 %20, label %21, label %23

21:                                               ; preds = %15
  %22 = call i32 @av_bprint_finalize(ptr noundef %6, ptr noundef null)
  store ptr null, ptr %2, align 8
  store i32 1, ptr %8, align 4
  br label %30

23:                                               ; preds = %15
  %24 = call i32 @av_bprint_finalize(ptr noundef %6, ptr noundef %7)
  store i32 %24, ptr %5, align 4, !tbaa !8
  %25 = load i32, ptr %5, align 4, !tbaa !8
  %26 = icmp slt i32 %25, 0
  br i1 %26, label %27, label %28

27:                                               ; preds = %23
  store ptr null, ptr %2, align 8
  store i32 1, ptr %8, align 4
  br label %30

28:                                               ; preds = %23
  %29 = load ptr, ptr %7, align 8, !tbaa !10
  store ptr %29, ptr %2, align 8
  store i32 1, ptr %8, align 4
  br label %30

30:                                               ; preds = %28, %27, %21, %13
  call void @llvm.lifetime.end.p0(i64 8, ptr %7) #11
  call void @llvm.lifetime.end.p0(i64 1024, ptr %6) #11
  call void @llvm.lifetime.end.p0(i64 4, ptr %5) #11
  call void @llvm.lifetime.end.p0(i64 8, ptr %4) #11
  %31 = load ptr, ptr %2, align 8
  ret ptr %31
}