; Function Attrs: nounwind uwtable
define ptr @file_read(ptr noundef %0) local_unnamed_addr #0 {
  %2 = alloca ptr, align 8
  %3 = alloca %struct.AVBPrint, align 8
  %4 = alloca ptr, align 8
  call void @llvm.lifetime.start.p0(i64 8, ptr nonnull %2) #15
  store ptr null, ptr %2, align 8, !tbaa !178
  %5 = call i32 @avio_open(ptr noundef nonnull %2, ptr noundef %0, i32 noundef 1) #15
  call void @llvm.lifetime.start.p0(i64 1024, ptr nonnull %3) #15
  call void @llvm.lifetime.start.p0(i64 8, ptr nonnull %4) #15
  %6 = icmp slt i32 %5, 0
  br i1 %6, label %7, label %8

7:                                                ; preds = %1
  call void (ptr, i32, ptr, ...) @av_log(ptr noundef null, i32 noundef 16, ptr noundef nonnull @.str.88, ptr noundef %0) #15
  br label %19

8:                                                ; preds = %1
  call void @av_bprint_init(ptr noundef nonnull %3, i32 noundef 0, i32 noundef -1) #15
  %9 = load ptr, ptr %2, align 8, !tbaa !178
  %10 = call i32 @avio_read_to_bprint(ptr noundef %9, ptr noundef nonnull %3, i64 noundef -1) #15
  %11 = call i32 @avio_closep(ptr noundef nonnull %2) #15
  %12 = icmp slt i32 %10, 0
  br i1 %12, label %13, label %15

13:                                               ; preds = %8
  %14 = call i32 @av_bprint_finalize(ptr noundef nonnull %3, ptr noundef null) #15
  br label %19

15:                                               ; preds = %8
  %16 = call i32 @av_bprint_finalize(ptr noundef nonnull %3, ptr noundef nonnull %4) #15
  %17 = icmp slt i32 %16, 0
  %18 = load ptr, ptr %4, align 8
  %spec.select = select i1 %17, ptr null, ptr %18
  br label %19

19:                                               ; preds = %15, %13, %7
  %.0 = phi ptr [ null, %7 ], [ null, %13 ], [ %spec.select, %15 ]
  call void @llvm.lifetime.end.p0(i64 8, ptr nonnull %4) #15
  call void @llvm.lifetime.end.p0(i64 1024, ptr nonnull %3) #15
  call void @llvm.lifetime.end.p0(i64 8, ptr nonnull %2) #15
  ret ptr %.0
}